target datalayout = "e-m:e-p270:32:32-p271:32:32-p272:64:64-i64:64-i128:128-f80:128-n8:16:32:64-S128"
target triple = "x86_64-unknown-linux-gnu"

%"class.icu_75::ScriptSet" = type { [7 x i32] }

@_ZN6icu_759ScriptSetC1Ev = unnamed_addr alias void (ptr), ptr @_ZN6icu_759ScriptSetC2Ev
@_ZN6icu_759ScriptSetD1Ev = unnamed_addr alias void (ptr), ptr @_ZN6icu_759ScriptSetD2Ev

; Function Attrs: mustprogress nounwind uwtable
define internal noundef signext i8 @_ZL9U_FAILURE10UErrorCode(i32 noundef %code) #0 {
entry:
  %code.addr = alloca i32, align 4
  store i32 %code, ptr %code.addr, align 4
  %0 = load i32, ptr %code.addr, align 4
  %cmp = icmp sgt i32 %0, 0
  %conv = zext i1 %cmp to i8
  ret i8 %conv
}

; Function Attrs: mustprogress nounwind uwtable
define noundef nonnull align 4 dereferenceable(28) ptr @_ZN6icu_759ScriptSet9intersectERKS0_(ptr noundef nonnull align 4 dereferenceable(28) %this, ptr noundef nonnull align 4 dereferenceable(28) %other) #0 align 2 {
entry:
  %this.addr = alloca ptr, align 8
  %other.addr = alloca ptr, align 8
  %i = alloca i32, align 4
  store ptr %this, ptr %this.addr, align 8
  store ptr %other, ptr %other.addr, align 8
  %this1 = load ptr, ptr %this.addr, align 8
  store i32 0, ptr %i, align 4
  br label %for.cond

for.cond:                                         ; preds = %for.inc, %entry
  %0 = load i32, ptr %i, align 4
  %cmp = icmp ult i32 %0, 7
  br i1 %cmp, label %for.body, label %for.end

for.body:                                         ; preds = %for.cond
  %1 = load ptr, ptr %other.addr, align 8
  %bits = getelementptr inbounds %"class.icu_75::ScriptSet", ptr %1, i32 0, i32 0
  %2 = load i32, ptr %i, align 4
  %idxprom = zext i32 %2 to i64
  %arrayidx = getelementptr inbounds [7 x i32], ptr %bits, i64 0, i64 %idxprom
  %3 = load i32, ptr %arrayidx, align 4
  %bits2 = getelementptr inbounds %"class.icu_75::ScriptSet", ptr %this1, i32 0, i32 0
  %4 = load i32, ptr %i, align 4
  %idxprom3 = zext i32 %4 to i64
  %arrayidx4 = getelementptr inbounds [7 x i32], ptr %bits2, i64 0, i64 %idxprom3
  %5 = load i32, ptr %arrayidx4, align 4
  %and = and i32 %5, %3
  store i32 %and, ptr %arrayidx4, align 4
  br label %for.inc

for.inc:                                          ; preds = %for.body
  %6 = load i32, ptr %i, align 4
  %inc = add i32 %6, 1
  store i32 %inc, ptr %i, align 4
  br label %for.cond, !llvm.loop !7

for.end:                                          ; preds = %for.cond
  ret ptr %this1
}

; Function Attrs: mustprogress nounwind uwtable
define internal noundef signext i8 @_ZL9U_SUCCESS10UErrorCode(i32 noundef %code) #0 {
entry:
  %code.addr = alloca i32, align 4
  store i32 %code, ptr %code.addr, align 4
  %0 = load i32, ptr %code.addr, align 4
  %cmp = icmp sle i32 %0, 0
  %conv = zext i1 %cmp to i8
  ret i8 %conv
}

; Function Attrs: mustprogress uwtable
define noundef nonnull align 4 dereferenceable(28) ptr @_ZN6icu_759ScriptSet3setE11UScriptCodeR10UErrorCode(ptr noundef nonnull align 4 dereferenceable(28) %this, i32 noundef %script, ptr noundef nonnull align 4 dereferenceable(4) %status) #2 align 2 {
entry:
  %retval = alloca ptr, align 8
  %this.addr = alloca ptr, align 8
  %script.addr = alloca i32, align 4
  %status.addr = alloca ptr, align 8
  %index = alloca i32, align 4
  %bit = alloca i32, align 4
  store ptr %this, ptr %this.addr, align 8
  store i32 %script, ptr %script.addr, align 4
  store ptr %status, ptr %status.addr, align 8
  %this1 = load ptr, ptr %this.addr, align 8
  %0 = load ptr, ptr %status.addr, align 8
  %1 = load i32, ptr %0, align 4
  %call = call noundef signext i8 @_ZL9U_FAILURE10UErrorCode(i32 noundef %1)
  %tobool = icmp ne i8 %call, 0
  br i1 %tobool, label %if.then, label %if.end

if.then:                                          ; preds = %entry
  store ptr %this1, ptr %retval, align 8
  br label %return

if.end:                                           ; preds = %entry
  %2 = load i32, ptr %script.addr, align 4
  %cmp = icmp slt i32 %2, 0
  br i1 %cmp, label %if.then3, label %lor.lhs.false

lor.lhs.false:                                    ; preds = %if.end
  %3 = load i32, ptr %script.addr, align 4
  %cmp2 = icmp sge i32 %3, 224
  br i1 %cmp2, label %if.then3, label %if.end4

if.then3:                                         ; preds = %lor.lhs.false, %if.end
  %4 = load ptr, ptr %status.addr, align 8
  store i32 1, ptr %4, align 4
  store ptr %this1, ptr %retval, align 8
  br label %return

if.end4:                                          ; preds = %lor.lhs.false
  %5 = load i32, ptr %script.addr, align 4
  %div = sdiv i32 %5, 32
  store i32 %div, ptr %index, align 4
  %6 = load i32, ptr %script.addr, align 4
  %and = and i32 %6, 31
  %shl = shl i32 1, %and
  store i32 %shl, ptr %bit, align 4
  %7 = load i32, ptr %bit, align 4
  %bits = getelementptr inbounds %"class.icu_75::ScriptSet", ptr %this1, i32 0, i32 0
  %8 = load i32, ptr %index, align 4
  %idxprom = zext i32 %8 to i64
  %arrayidx = getelementptr inbounds [7 x i32], ptr %bits, i64 0, i64 %idxprom
  %9 = load i32, ptr %arrayidx, align 4
  %or = or i32 %9, %7
  store i32 %or, ptr %arrayidx, align 4
  store ptr %this1, ptr %retval, align 8
  br label %return

return:                                           ; preds = %if.end4, %if.then3, %if.then
  %10 = load ptr, ptr %retval, align 8
  ret ptr %10
}

; Function Attrs: mustprogress uwtable
define noundef nonnull align 4 dereferenceable(28) ptr @_ZN6icu_759ScriptSet9intersectE11UScriptCodeR10UErrorCode(ptr noundef nonnull align 4 dereferenceable(28) %this, i32 noundef %script, ptr noundef nonnull align 4 dereferenceable(4) %status) #2 align 2 personality ptr @__gxx_personality_v0 {
entry:
  %this.addr = alloca ptr, align 8
  %script.addr = alloca i32, align 4
  %status.addr = alloca ptr, align 8
  %t = alloca %"class.icu_75::ScriptSet", align 4
  %exn.slot = alloca ptr, align 8
  %ehselector.slot = alloca i32, align 4
  store ptr %this, ptr %this.addr, align 8
  store i32 %script, ptr %script.addr, align 4
  store ptr %status, ptr %status.addr, align 8
  %this1 = load ptr, ptr %this.addr, align 8
  call void @_ZN6icu_759ScriptSetC1Ev(ptr noundef nonnull align 4 dereferenceable(28) %t)
  %0 = load i32, ptr %script.addr, align 4
  %1 = load ptr, ptr %status.addr, align 8
  %call = invoke noundef nonnull align 4 dereferenceable(28) ptr @_ZN6icu_759ScriptSet3setE11UScriptCodeR10UErrorCode(ptr noundef nonnull align 4 dereferenceable(28) %t, i32 noundef %0, ptr noundef nonnull align 4 dereferenceable(4) %1)
          to label %invoke.cont unwind label %lpad

invoke.cont:                                      ; preds = %entry
  %2 = load ptr, ptr %status.addr, align 8
  %3 = load i32, ptr %2, align 4
  %call3 = invoke noundef signext i8 @_ZL9U_SUCCESS10UErrorCode(i32 noundef %3)
          to label %invoke.cont2 unwind label %lpad

invoke.cont2:                                     ; preds = %invoke.cont
  %tobool = icmp ne i8 %call3, 0
  br i1 %tobool, label %if.then, label %if.end

if.then:                                          ; preds = %invoke.cont2
  %call4 = call noundef nonnull align 4 dereferenceable(28) ptr @_ZN6icu_759ScriptSet9intersectERKS0_(ptr noundef nonnull align 4 dereferenceable(28) %this1, ptr noundef nonnull align 4 dereferenceable(28) %t)
  br label %if.end

lpad:                                             ; preds = %invoke.cont, %entry
  %4 = landingpad { ptr, i32 }
          cleanup
  %5 = extractvalue { ptr, i32 } %4, 0
  store ptr %5, ptr %exn.slot, align 8
  %6 = extractvalue { ptr, i32 } %4, 1
  store i32 %6, ptr %ehselector.slot, align 4
  call void @_ZN6icu_759ScriptSetD1Ev(ptr noundef nonnull align 4 dereferenceable(28) %t) #8
  br label %eh.resume

if.end:                                           ; preds = %if.then, %invoke.cont2
  call void @_ZN6icu_759ScriptSetD1Ev(ptr noundef nonnull align 4 dereferenceable(28) %t) #8
  ret ptr %this1

eh.resume:                                        ; preds = %lpad
  %exn = load ptr, ptr %exn.slot, align 8
  %sel = load i32, ptr %ehselector.slot, align 4
  %lpad.val = insertvalue { ptr, i32 } poison, ptr %exn, 0
  %lpad.val5 = insertvalue { ptr, i32 } %lpad.val, i32 %sel, 1
  resume { ptr, i32 } %lpad.val5
}