; Function Attrs: mustprogress uwtable
define noundef nonnull align 4 dereferenceable(28) ptr @_ZN6icu_759ScriptSet9intersectE11UScriptCodeR10UErrorCode(ptr noundef nonnull returned align 4 dereferenceable(28) %this, i32 noundef %script, ptr nocapture noundef nonnull align 4 dereferenceable(4) %status) local_unnamed_addr #7 align 2 personality ptr @__gxx_personality_v0 {
entry:
  %t = alloca %"class.icu_75::ScriptSet", align 4
  call void @_ZN6icu_759ScriptSetC1Ev(ptr noundef nonnull align 4 dereferenceable(28) %t)
  %0 = load i32, ptr %status, align 4
  %cmp.i.i = icmp slt i32 %0, 1
  br i1 %cmp.i.i, label %if.end.i, label %if.end

if.end.i:                                         ; preds = %entry
  %or.cond.i = icmp ugt i32 %script, 223
  br i1 %or.cond.i, label %if.then3.i, label %for.body.i.preheader

if.then3.i:                                       ; preds = %if.end.i
  store i32 1, ptr %status, align 4
  br label %if.end

for.body.i.preheader:                             ; preds = %if.end.i
  %div5.i = lshr i32 %script, 5
  %and.i = and i32 %script, 31
  %shl.i = shl nuw i32 1, %and.i
  %idxprom.i = zext nneg i32 %div5.i to i64
  %arrayidx.i = getelementptr inbounds [7 x i32], ptr %t, i64 0, i64 %idxprom.i
  %1 = load i32, ptr %arrayidx.i, align 4
  %or.i = or i32 %1, %shl.i
  store i32 %or.i, ptr %arrayidx.i, align 4
  br label %for.body.i

for.body.i:                                       ; preds = %for.body.i.preheader, %for.body.i
  %indvars.iv.i = phi i64 [ %indvars.iv.next.i, %for.body.i ], [ 0, %for.body.i.preheader ]
  %arrayidx.i2 = getelementptr inbounds [7 x i32], ptr %t, i64 0, i64 %indvars.iv.i
  %2 = load i32, ptr %arrayidx.i2, align 4
  %arrayidx4.i = getelementptr inbounds [7 x i32], ptr %this, i64 0, i64 %indvars.iv.i
  %3 = load i32, ptr %arrayidx4.i, align 4
  %and.i3 = and i32 %3, %2
  store i32 %and.i3, ptr %arrayidx4.i, align 4
  %indvars.iv.next.i = add nuw nsw i64 %indvars.iv.i, 1
  %exitcond.not.i = icmp eq i64 %indvars.iv.next.i, 7
  br i1 %exitcond.not.i, label %if.end, label %for.body.i, !llvm.loop !7

if.end:                                           ; preds = %for.body.i, %entry, %if.then3.i
  call void @_ZN6icu_759ScriptSetD1Ev(ptr noundef nonnull align 4 dereferenceable(28) %t) #14
  ret ptr %this
}